#include <math.h>
#include <stdio.h>
#include <stdlib.h>
#include <string.h>

int main()
{
char f[100000];
int t,i,j,k,a;
char b;
scanf("%d",&t);
gets(f);
for(i=0;i<t;i++)
{
	b='!';
	gets(f);
	for(j=0;j<strlen(f);j++)
	{
		a=0;
		for(k=0;k<strlen(f);k++)
		{
			if(f[j]==f[k])
				a++;
		}
		if(a==1)
		{
			b=f[j];
		break;
		}
		else
			;
	}
	if(b=='!')
	printf("no");
	else
	printf("%c\n",b);
}
	return 0;
}